ccopy_reg
_reconstructor
p1
(cmatplotlib.font_manager
FontManager
p2
c__builtin__
object
p3
NtRp4
(dp5
S'ttflist'
p6
(lp7
g1
(cmatplotlib.font_manager
FontEntry
p8
g3
NtRp9
(dp10
S'style'
p11
Vnormal
p12
sS'name'
p13
S'Bitstream Vera Sans Mono'
p14
sS'weight'
p15
I400
sS'stretch'
p16
g12
sS'variant'
p17
g12
sS'fname'
p18
V/usr/local/lib/python2.7/site-packages/matplotlib/mpl-data/fonts/ttf/VeraMono.ttf
p19
sS'size'
p20
Vscalable
p21
sbag1
(g8
g3
NtRp22
(dp23
g11
g12
sg13
S'cmr10'
p24
sg15
I400
sg16
g12
sg17
g12
sg18
V/usr/local/lib/python2.7/site-packages/matplotlib/mpl-data/fonts/ttf/cmr10.ttf
p25
sg20
g21
sbag1
(g8
g3
NtRp26
(dp27
g11
g12
sg13
S'STIXSizeFourSym'
p28
sg15
I400
sg16
g12
sg17
g12
sg18
V/usr/local/lib/python2.7/site-packages/matplotlib/mpl-data/fonts/ttf/STIXSizFourSymReg.ttf
p29
sg20
g21
sbag1
(g8
g3
NtRp30
(dp31
g11
g12
sg13
S'STIXSizeTwoSym'
p32
sg15
I400
sg16
g12
sg17
g12
sg18
V/usr/local/lib/python2.7/site-packages/matplotlib/mpl-data/fonts/ttf/STIXSizTwoSymReg.ttf
p33
sg20
g21
sbag1
(g8
g3
NtRp34
(dp35
g11
g12
sg13
S'STIXSizeThreeSym'
p36
sg15
I700
sg16
g12
sg17
g12
sg18
V/usr/local/lib/python2.7/site-packages/matplotlib/mpl-data/fonts/ttf/STIXSizThreeSymBol.ttf
p37
sg20
g21
sbag1
(g8
g3
NtRp38
(dp39
g11
Vitalic
p40
sg13
S'STIXGeneral'
p41
sg15
I700
sg16
g12
sg17
g12
sg18
V/usr/local/lib/python2.7/site-packages/matplotlib/mpl-data/fonts/ttf/STIXGeneralBolIta.ttf
p42
sg20
g21
sbag1
(g8
g3
NtRp43
(dp44
g11
Voblique
p45
sg13
S'Bitstream Vera Sans'
p46
sg15
I700
sg16
g12
sg17
g12
sg18
V/usr/local/lib/python2.7/site-packages/matplotlib/mpl-data/fonts/ttf/VeraBI.ttf
p47
sg20
g21
sbag1
(g8
g3
NtRp48
(dp49
g11
g12
sg13
S'cmtt10'
p50
sg15
I400
sg16
g12
sg17
g12
sg18
V/usr/local/lib/python2.7/site-packages/matplotlib/mpl-data/fonts/ttf/cmtt10.ttf
p51
sg20
g21
sbag1
(g8
g3
NtRp52
(dp53
g11
g12
sg13
S'STIXSizeTwoSym'
p54
sg15
I700
sg16
g12
sg17
g12
sg18
V/usr/local/lib/python2.7/site-packages/matplotlib/mpl-data/fonts/ttf/STIXSizTwoSymBol.ttf
p55
sg20
g21
sbag1
(g8
g3
NtRp56
(dp57
g11
g12
sg13
S'STIXGeneral'
p58
sg15
I400
sg16
g12
sg17
g12
sg18
V/usr/local/lib/python2.7/site-packages/matplotlib/mpl-data/fonts/ttf/STIXGeneral.ttf
p59
sg20
g21
sbag1
(g8
g3
NtRp60
(dp61
g11
g12
sg13
S'cmmi10'
p62
sg15
I400
sg16
g12
sg17
g12
sg18
V/usr/local/lib/python2.7/site-packages/matplotlib/mpl-data/fonts/ttf/cmmi10.ttf
p63
sg20
g21
sbag1
(g8
g3
NtRp64
(dp65
g11
g12
sg13
S'STIXSizeOneSym'
p66
sg15
I700
sg16
g12
sg17
g12
sg18
V/usr/local/lib/python2.7/site-packages/matplotlib/mpl-data/fonts/ttf/STIXSizOneSymBol.ttf
p67
sg20
g21
sbag1
(g8
g3
NtRp68
(dp69
g11
g12
sg13
S'cmb10'
p70
sg15
I400
sg16
g12
sg17
g12
sg18
V/usr/local/lib/python2.7/site-packages/matplotlib/mpl-data/fonts/ttf/cmb10.ttf
p71
sg20
g21
sbag1
(g8
g3
NtRp72
(dp73
g11
g12
sg13
S'STIXSizeThreeSym'
p74
sg15
I400
sg16
g12
sg17
g12
sg18
V/usr/local/lib/python2.7/site-packages/matplotlib/mpl-data/fonts/ttf/STIXSizThreeSymReg.ttf
p75
sg20
g21
sbag1
(g8
g3
NtRp76
(dp77
g11
g12
sg13
S'STIXSizeFiveSym'
p78
sg15
I400
sg16
g12
sg17
g12
sg18
V/usr/local/lib/python2.7/site-packages/matplotlib/mpl-data/fonts/ttf/STIXSizFiveSymReg.ttf
p79
sg20
g21
sbag1
(g8
g3
NtRp80
(dp81
g11
g40
sg13
S'STIXGeneral'
p82
sg15
I400
sg16
g12
sg17
g12
sg18
V/usr/local/lib/python2.7/site-packages/matplotlib/mpl-data/fonts/ttf/STIXGeneralItalic.ttf
p83
sg20
g21
sbag1
(g8
g3
NtRp84
(dp85
g11
g12
sg13
S'Bitstream Vera Sans'
p86
sg15
I700
sg16
g12
sg17
g12
sg18
V/usr/local/lib/python2.7/site-packages/matplotlib/mpl-data/fonts/ttf/VeraBd.ttf
p87
sg20
g21
sbag1
(g8
g3
NtRp88
(dp89
g11
g12
sg13
S'cmss10'
p90
sg15
I400
sg16
g12
sg17
g12
sg18
V/usr/local/lib/python2.7/site-packages/matplotlib/mpl-data/fonts/ttf/cmss10.ttf
p91
sg20
g21
sbag1
(g8
g3
NtRp92
(dp93
g11
g12
sg13
S'Bitstream Vera Serif'
p94
sg15
I700
sg16
g12
sg17
g12
sg18
V/usr/local/lib/python2.7/site-packages/matplotlib/mpl-data/fonts/ttf/VeraSeBd.ttf
p95
sg20
g21
sbag1
(g8
g3
NtRp96
(dp97
g11
g45
sg13
S'Bitstream Vera Sans Mono'
p98
sg15
I700
sg16
g12
sg17
g12
sg18
V/usr/local/lib/python2.7/site-packages/matplotlib/mpl-data/fonts/ttf/VeraMoBI.ttf
p99
sg20
g21
sbag1
(g8
g3
NtRp100
(dp101
g11
g12
sg13
S'Bitstream Vera Sans Mono'
p102
sg15
I700
sg16
g12
sg17
g12
sg18
V/usr/local/lib/python2.7/site-packages/matplotlib/mpl-data/fonts/ttf/VeraMoBd.ttf
p103
sg20
g21
sbag1
(g8
g3
NtRp104
(dp105
g11
g45
sg13
S'Bitstream Vera Sans Mono'
p106
sg15
I400
sg16
g12
sg17
g12
sg18
V/usr/local/lib/python2.7/site-packages/matplotlib/mpl-data/fonts/ttf/VeraMoIt.ttf
p107
sg20
g21
sbag1
(g8
g3
NtRp108
(dp109
g11
g12
sg13
S'Bitstream Vera Sans'
p110
sg15
I400
sg16
g12
sg17
g12
sg18
V/usr/local/lib/python2.7/site-packages/matplotlib/mpl-data/fonts/ttf/Vera.ttf
p111
sg20
g21
sbag1
(g8
g3
NtRp112
(dp113
g11
g40
sg13
S'STIXNonUnicode'
p114
sg15
I700
sg16
g12
sg17
g12
sg18
V/usr/local/lib/python2.7/site-packages/matplotlib/mpl-data/fonts/ttf/STIXNonUniBolIta.ttf
p115
sg20
g21
sbag1
(g8
g3
NtRp116
(dp117
g11
g12
sg13
S'STIXNonUnicode'
p118
sg15
I700
sg16
g12
sg17
g12
sg18
V/usr/local/lib/python2.7/site-packages/matplotlib/mpl-data/fonts/ttf/STIXNonUniBol.ttf
p119
sg20
g21
sbag1
(g8
g3
NtRp120
(dp121
g11
g12
sg13
S'STIXSizeOneSym'
p122
sg15
I400
sg16
g12
sg17
g12
sg18
V/usr/local/lib/python2.7/site-packages/matplotlib/mpl-data/fonts/ttf/STIXSizOneSymReg.ttf
p123
sg20
g21
sbag1
(g8
g3
NtRp124
(dp125
g11
g12
sg13
S'STIXGeneral'
p126
sg15
I700
sg16
g12
sg17
g12
sg18
V/usr/local/lib/python2.7/site-packages/matplotlib/mpl-data/fonts/ttf/STIXGeneralBol.ttf
p127
sg20
g21
sbag1
(g8
g3
NtRp128
(dp129
g11
g45
sg13
S'Bitstream Vera Sans'
p130
sg15
I400
sg16
g12
sg17
g12
sg18
V/usr/local/lib/python2.7/site-packages/matplotlib/mpl-data/fonts/ttf/VeraIt.ttf
p131
sg20
g21
sbag1
(g8
g3
NtRp132
(dp133
g11
g12
sg13
S'STIXNonUnicode'
p134
sg15
I400
sg16
g12
sg17
g12
sg18
V/usr/local/lib/python2.7/site-packages/matplotlib/mpl-data/fonts/ttf/STIXNonUni.ttf
p135
sg20
g21
sbag1
(g8
g3
NtRp136
(dp137
g11
g12
sg13
S'cmex10'
p138
sg15
I400
sg16
g12
sg17
g12
sg18
V/usr/local/lib/python2.7/site-packages/matplotlib/mpl-data/fonts/ttf/cmex10.ttf
p139
sg20
g21
sbag1
(g8
g3
NtRp140
(dp141
g11
g12
sg13
S'cmsy10'
p142
sg15
I400
sg16
g12
sg17
g12
sg18
V/usr/local/lib/python2.7/site-packages/matplotlib/mpl-data/fonts/ttf/cmsy10.ttf
p143
sg20
g21
sbag1
(g8
g3
NtRp144
(dp145
g11
g40
sg13
S'STIXNonUnicode'
p146
sg15
I400
sg16
g12
sg17
g12
sg18
V/usr/local/lib/python2.7/site-packages/matplotlib/mpl-data/fonts/ttf/STIXNonUniIta.ttf
p147
sg20
g21
sbag1
(g8
g3
NtRp148
(dp149
g11
g12
sg13
S'STIXSizeFourSym'
p150
sg15
I700
sg16
g12
sg17
g12
sg18
V/usr/local/lib/python2.7/site-packages/matplotlib/mpl-data/fonts/ttf/STIXSizFourSymBol.ttf
p151
sg20
g21
sbag1
(g8
g3
NtRp152
(dp153
g11
g12
sg13
S'Bitstream Vera Serif'
p154
sg15
I400
sg16
g12
sg17
g12
sg18
V/usr/local/lib/python2.7/site-packages/matplotlib/mpl-data/fonts/ttf/VeraSe.ttf
p155
sg20
g21
sbag1
(g8
g3
NtRp156
(dp157
g11
g40
sg13
S'Trebuchet MS'
p158
sg15
I400
sg16
g12
sg17
g12
sg18
V/Library/Fonts/Trebuchet MS Italic.ttf
p159
sg20
g21
sbag1
(g8
g3
NtRp160
(dp161
g11
g12
sg13
S'Hoefler Text'
p162
sg15
I400
sg16
g12
sg17
g12
sg18
V/Library/Fonts/Hoefler Text Ornaments.ttf
p163
sg20
g21
sbag1
(g8
g3
NtRp164
(dp165
g11
g12
sg13
S'Mshtakan'
p166
sg15
I400
sg16
g12
sg17
g12
sg18
V/Library/Fonts/MshtakanRegular.ttf
p167
sg20
g21
sbag1
(g8
g3
NtRp168
(dp169
g11
g12
sg13
S'Osaka'
p170
sg15
I400
sg16
g12
sg17
g12
sg18
V/Library/Fonts/Osaka.ttf
p171
sg20
g21
sbag1
(g8
g3
NtRp172
(dp173
g11
g12
sg13
S'Hiragino Mincho Pro'
p174
sg15
I400
sg16
g12
sg17
g12
sg18
V/Library/Fonts/\u30d2\u30e9\u30ad\u3099\u30ce\u660e\u671d Pro W3.otf
p175
sg20
g21
sbag1
(g8
g3
NtRp176
(dp177
g11
g12
sg13
S'Verdana'
p178
sg15
I700
sg16
g12
sg17
g12
sg18
V/Library/Fonts/Verdana Bold.ttf
p179
sg20
g21
sbag1
(g8
g3
NtRp180
(dp181
g11
g12
sg13
S'Apple SD Gothic Neo'
p182
sg15
I200
sg16
g12
sg17
g12
sg18
V/Library/Fonts/AppleSDGothicNeo-UltraLight.otf
p183
sg20
g21
sbag1
(g8
g3
NtRp184
(dp185
g11
g12
sg13
S'Arial Unicode MS'
p186
sg15
I400
sg16
g12
sg17
g12
sg18
V/Library/Fonts/Arial Unicode.ttf
p187
sg20
g21
sbag1
(g8
g3
NtRp188
(dp189
g11
g12
sg13
S'STIXSizeThreeSym'
p190
sg15
I400
sg16
g12
sg17
g12
sg18
V/Library/Fonts/STIXSizThreeSymReg.otf
p191
sg20
g21
sbag1
(g8
g3
NtRp192
(dp193
g11
g12
sg13
S'DIN Condensed'
p194
sg15
I700
sg16
Vcondensed
p195
sg17
g12
sg18
V/Library/Fonts/DIN Condensed Bold.ttf
p196
sg20
g21
sbag1
(g8
g3
NtRp197
(dp198
g11
g12
sg13
S'Hiragino Mincho ProN'
p199
sg15
I400
sg16
g12
sg17
g12
sg18
V/System/Library/Fonts/\u30d2\u30e9\u30ad\u3099\u30ce\u660e\u671d ProN W3.otf
p200
sg20
g21
sbag1
(g8
g3
NtRp201
(dp202
g11
g12
sg13
S'Times New Roman'
p203
sg15
I500
sg16
g12
sg17
g12
sg18
V/Library/Fonts/Times New Roman.ttf
p204
sg20
g21
sbag1
(g8
g3
NtRp205
(dp206
g11
g12
sg13
S'LiSong Pro'
p207
sg15
I400
sg16
g12
sg17
g12
sg18
V/Library/Fonts/\u5137\u5b8b Pro.ttf
p208
sg20
g21
sbag1
(g8
g3
NtRp209
(dp210
g11
g12
sg13
S'Apple SD Gothic Neo'
p211
sg15
I800
sg16
g12
sg17
g12
sg18
V/Library/Fonts/AppleSDGothicNeo-Heavy.otf
p212
sg20
g21
sbag1
(g8
g3
NtRp213
(dp214
g11
g12
sg13
S'Arial'
p215
sg15
I400
sg16
g12
sg17
g12
sg18
V/Library/Fonts/Arial.ttf
p216
sg20
g21
sbag1
(g8
g3
NtRp217
(dp218
g11
g12
sg13
S'AppleGothic'
p219
sg15
I400
sg16
g12
sg17
g12
sg18
V/Library/Fonts/AppleGothic.ttf
p220
sg20
g21
sbag1
(g8
g3
NtRp221
(dp222
g11
g12
sg13
S'YuGothic'
p223
sg15
I400
sg16
g12
sg17
g12
sg18
V/Library/Fonts/Yu Gothic Medium.otf
p224
sg20
g21
sbag1
(g8
g3
NtRp225
(dp226
g11
g12
sg13
S'Gujarati MT'
p227
sg15
I700
sg16
g12
sg17
g12
sg18
V/Library/Fonts/GujaratiMTBold.ttf
p228
sg20
g21
sbag1
(g8
g3
NtRp229
(dp230
g11
g12
sg13
S'Arial Narrow'
p231
sg15
I400
sg16
g195
sg17
g12
sg18
V/Library/Fonts/Arial Narrow.ttf
p232
sg20
g21
sbag1
(g8
g3
NtRp233
(dp234
g11
g12
sg13
S'Apple SD Gothic Neo'
p235
sg15
I700
sg16
g12
sg17
g12
sg18
V/System/Library/Fonts/AppleSDGothicNeo-Bold.otf
p236
sg20
g21
sbag1
(g8
g3
NtRp237
(dp238
g11
g12
sg13
S'Hiragino Maru Gothic ProN'
p239
sg15
I400
sg16
g12
sg17
g12
sg18
V/Library/Fonts/\u30d2\u30e9\u30ad\u3099\u30ce\u4e38\u30b3\u3099 ProN W4.otf
p240
sg20
g21
sbag1
(g8
g3
NtRp241
(dp242
g11
g45
sg13
S'Mshtakan'
p243
sg15
I400
sg16
g12
sg17
g12
sg18
V/Library/Fonts/MshtakanOblique.ttf
p244
sg20
g21
sbag1
(g8
g3
NtRp245
(dp246
g11
g12
sg13
S'Hiragino Mincho Pro'
p247
sg15
I700
sg16
g12
sg17
g12
sg18
V/Library/Fonts/\u30d2\u30e9\u30ad\u3099\u30ce\u660e\u671d Pro W6.otf
p248
sg20
g21
sbag1
(g8
g3
NtRp249
(dp250
g11
g12
sg13
S'AppleMyungjo'
p251
sg15
I400
sg16
g12
sg17
g12
sg18
V/Library/Fonts/AppleMyungjo.ttf
p252
sg20
g21
sbag1
(g8
g3
NtRp253
(dp254
g11
g12
sg13
S'Mishafi Gold'
p255
sg15
I400
sg16
g12
sg17
g12
sg18
V/Library/Fonts/Mishafi Gold.ttf
p256
sg20
g21
sbag1
(g8
g3
NtRp257
(dp258
g11
g12
sg13
S'Zapf Dingbats'
p259
sg15
I400
sg16
g12
sg17
g12
sg18
V/System/Library/Fonts/ZapfDingbats.ttf
p260
sg20
g21
sbag1
(g8
g3
NtRp261
(dp262
g11
g12
sg13
S'STIXIntegralsD'
p263
sg15
I700
sg16
g12
sg17
g12
sg18
V/Library/Fonts/STIXIntDBol.otf
p264
sg20
g21
sbag1
(g8
g3
NtRp265
(dp266
g11
g12
sg13
S'DIN Alternate'
p267
sg15
I700
sg16
g12
sg17
g12
sg18
V/Library/Fonts/DIN Alternate Bold.ttf
p268
sg20
g21
sbag1
(g8
g3
NtRp269
(dp270
g11
g12
sg13
S'Myanmar Sangam MN'
p271
sg15
I400
sg16
g12
sg17
g12
sg18
V/Library/Fonts/Myanmar Sangam MN.ttf
p272
sg20
g21
sbag1
(g8
g3
NtRp273
(dp274
g11
g12
sg13
S'STIXSizeThreeSym'
p275
sg15
I700
sg16
g12
sg17
g12
sg18
V/Library/Fonts/STIXSizThreeSymBol.otf
p276
sg20
g21
sbag1
(g8
g3
NtRp277
(dp278
g11
g12
sg13
S'Courier New'
p279
sg15
I400
sg16
g12
sg17
g12
sg18
V/Library/Fonts/Courier New.ttf
p280
sg20
g21
sbag1
(g8
g3
NtRp281
(dp282
g11
g40
sg13
S'Arial Narrow'
p283
sg15
I700
sg16
g195
sg17
g12
sg18
V/Library/Fonts/Arial Narrow Bold Italic.ttf
p284
sg20
g21
sbag1
(g8
g3
NtRp285
(dp286
g11
g12
sg13
S'Luminari'
p287
sg15
I400
sg16
g12
sg17
g12
sg18
V/Library/Fonts/Luminari.ttf
p288
sg20
g21
sbag1
(g8
g3
NtRp289
(dp290
g11
g12
sg13
S'Zapfino'
p291
sg15
I400
sg16
g12
sg17
g12
sg18
V/Library/Fonts/Zapfino.ttf
p292
sg20
g21
sbag1
(g8
g3
NtRp293
(dp294
g11
g12
sg13
S'Arial Narrow'
p295
sg15
I700
sg16
g195
sg17
g12
sg18
V/Library/Fonts/Arial Narrow Bold.ttf
p296
sg20
g21
sbag1
(g8
g3
NtRp297
(dp298
g11
g40
sg13
S'Times New Roman'
p299
sg15
I500
sg16
g12
sg17
g12
sg18
V/Library/Fonts/Times New Roman Italic.ttf
p300
sg20
g21
sbag1
(g8
g3
NtRp301
(dp302
g11
g12
sg13
S'Krungthep'
p303
sg15
I400
sg16
g12
sg17
g12
sg18
V/Library/Fonts/Krungthep.ttf
p304
sg20
g21
sbag1
(g8
g3
NtRp305
(dp306
g11
g12
sg13
S'Apple SD Gothic Neo'
p307
sg15
I700
sg16
g12
sg17
g12
sg18
V/Library/Fonts/AppleSDGothicNeo-ExtraBold.otf
p308
sg20
g21
sbag1
(g8
g3
NtRp309
(dp310
g11
g12
sg13
S'Georgia'
p311
sg15
I400
sg16
g12
sg17
g12
sg18
V/Library/Fonts/Georgia.ttf
p312
sg20
g21
sbag1
(g8
g3
NtRp313
(dp314
g11
g12
sg13
S'STIXIntegralsSm'
p315
sg15
I700
sg16
g12
sg17
g12
sg18
V/Library/Fonts/STIXIntSmBol.otf
p316
sg20
g21
sbag1
(g8
g3
NtRp317
(dp318
g11
g12
sg13
S'Diwan Thuluth'
p319
sg15
I400
sg16
g12
sg17
g12
sg18
V/Library/Fonts/Diwan Thuluth.ttf
p320
sg20
g21
sbag1
(g8
g3
NtRp321
(dp322
g11
g12
sg13
S'Trebuchet MS'
p323
sg15
I700
sg16
g12
sg17
g12
sg18
V/Library/Fonts/Trebuchet MS Bold.ttf
p324
sg20
g21
sbag1
(g8
g3
NtRp325
(dp326
g11
g12
sg13
S'Bradley Hand'
p327
sg15
I700
sg16
g12
sg17
g12
sg18
V/Library/Fonts/Bradley Hand Bold.ttf
p328
sg20
g21
sbag1
(g8
g3
NtRp329
(dp330
g11
g40
sg13
S'Times New Roman'
p331
sg15
I700
sg16
g12
sg17
g12
sg18
V/Library/Fonts/Times New Roman Bold Italic.ttf
p332
sg20
g21
sbag1
(g8
g3
NtRp333
(dp334
g11
g40
sg13
S'Arial Narrow'
p335
sg15
I400
sg16
g195
sg17
g12
sg18
V/Library/Fonts/Arial Narrow Italic.ttf
p336
sg20
g21
sbag1
(g8
g3
NtRp337
(dp338
g11
g12
sg13
S'Hiragino Kaku Gothic Pro'
p339
sg15
I700
sg16
g12
sg17
g12
sg18
V/Library/Fonts/\u30d2\u30e9\u30ad\u3099\u30ce\u89d2\u30b3\u3099 Pro W6.otf
p340
sg20
g21
sbag1
(g8
g3
NtRp341
(dp342
g11
g12
sg13
S'Hiragino Maru Gothic Pro'
p343
sg15
I400
sg16
g12
sg17
g12
sg18
V/Library/Fonts/\u30d2\u30e9\u30ad\u3099\u30ce\u4e38\u30b3\u3099 Pro W4.otf
p344
sg20
g21
sbag1
(g8
g3
NtRp345
(dp346
g11
g12
sg13
S'Apple SD Gothic Neo'
p347
sg15
I400
sg16
g12
sg17
g12
sg18
V/System/Library/Fonts/AppleSDGothicNeo-Regular.otf
p348
sg20
g21
sbag1
(g8
g3
NtRp349
(dp350
g11
g12
sg13
S'PilGi'
p351
sg15
I400
sg16
g12
sg17
g12
sg18
V/Library/Fonts/Pilgiche.ttf
p352
sg20
g21
sbag1
(g8
g3
NtRp353
(dp354
g11
g12
sg13
S'Apple Braille'
p355
sg15
I400
sg16
g12
sg17
g12
sg18
V/System/Library/Fonts/Apple Braille Outline 8 Dot.ttf
p356
sg20
g21
sbag1
(g8
g3
NtRp357
(dp358
g11
g12
sg13
S'Plantagenet Cherokee'
p359
sg15
I400
sg16
g12
sg17
g12
sg18
V/Library/Fonts/PlantagenetCherokee.ttf
p360
sg20
g21
sbag1
(g8
g3
NtRp361
(dp362
g11
g12
sg13
S'Times New Roman'
p363
sg15
I700
sg16
g12
sg17
g12
sg18
V/Library/Fonts/Times New Roman Bold.ttf
p364
sg20
g21
sbag1
(g8
g3
NtRp365
(dp366
g11
g40
sg13
S'Arial'
p367
sg15
I700
sg16
g12
sg17
g12
sg18
V/Library/Fonts/Arial Bold Italic.ttf
p368
sg20
g21
sbag1
(g8
g3
NtRp369
(dp370
g11
g12
sg13
S'HeadLineA'
p371
sg15
I400
sg16
g12
sg17
g12
sg18
V/Library/Fonts/HeadlineA.ttf
p372
sg20
g21
sbag1
(g8
g3
NtRp373
(dp374
g11
g12
sg13
S'Hiragino Kaku Gothic Pro'
p375
sg15
I400
sg16
g12
sg17
g12
sg18
V/Library/Fonts/\u30d2\u30e9\u30ad\u3099\u30ce\u89d2\u30b3\u3099 Pro W3.otf
p376
sg20
g21
sbag1
(g8
g3
NtRp377
(dp378
g11
g12
sg13
S'STIXVariants'
p379
sg15
I400
sg16
g12
sg17
g12
sg18
V/Library/Fonts/STIXVar.otf
p380
sg20
g21
sbag1
(g8
g3
NtRp381
(dp382
g11
g12
sg13
S'Mishafi'
p383
sg15
I400
sg16
g12
sg17
g12
sg18
V/Library/Fonts/Mishafi.ttf
p384
sg20
g21
sbag1
(g8
g3
NtRp385
(dp386
g11
g12
sg13
S'STIXVariants'
p387
sg15
I700
sg16
g12
sg17
g12
sg18
V/Library/Fonts/STIXVarBol.otf
p388
sg20
g21
sbag1
(g8
g3
NtRp389
(dp390
g11
g12
sg13
S'Hiragino Sans GB'
p391
sg15
I400
sg16
g12
sg17
g12
sg18
V/Library/Fonts/Hiragino Sans GB W3.otf
p392
sg20
g21
sbag1
(g8
g3
NtRp393
(dp394
g11
g12
sg13
S'STFangsong'
p395
sg15
I400
sg16
g12
sg17
g12
sg18
V/Library/Fonts/\u534e\u6587\u4eff\u5b8b.ttf
p396
sg20
g21
sbag1
(g8
g3
NtRp397
(dp398
g11
g12
sg13
S'Mshtakan'
p399
sg15
I700
sg16
g12
sg17
g12
sg18
V/Library/Fonts/MshtakanBold.ttf
p400
sg20
g21
sbag1
(g8
g3
NtRp401
(dp402
g11
g12
sg13
S'STHeiti'
p403
sg15
I400
sg16
g12
sg17
g12
sg18
V/Library/Fonts/\u534e\u6587\u9ed1\u4f53.ttf
p404
sg20
g21
sbag1
(g8
g3
NtRp405
(dp406
g11
g12
sg13
S'STIXIntegralsUp'
p407
sg15
I700
sg16
g12
sg17
g12
sg18
V/Library/Fonts/STIXIntUpBol.otf
p408
sg20
g21
sbag1
(g8
g3
NtRp409
(dp410
g11
g12
sg13
S'Wawati TC'
p411
sg15
I400
sg16
g12
sg17
g12
sg18
V/Library/Fonts/WawaTC-Regular.otf
p412
sg20
g21
sbag1
(g8
g3
NtRp413
(dp414
g11
g12
sg13
S'Skia'
p415
sg15
I400
sg16
g12
sg17
g12
sg18
V/Library/Fonts/Skia.ttf
p416
sg20
g21
sbag1
(g8
g3
NtRp417
(dp418
g11
g12
sg13
S'STIXSizeFiveSym'
p419
sg15
I400
sg16
g12
sg17
g12
sg18
V/Library/Fonts/STIXSizFiveSymReg.otf
p420
sg20
g21
sbag1
(g8
g3
NtRp421
(dp422
g11
g12
sg13
S'Verdana'
p423
sg15
I400
sg16
g12
sg17
g12
sg18
V/Library/Fonts/Verdana.ttf
p424
sg20
g21
sbag1
(g8
g3
NtRp425
(dp426
g11
g12
sg13
S'Farisi'
p427
sg15
I400
sg16
g12
sg17
g12
sg18
V/Library/Fonts/Farisi.ttf
p428
sg20
g21
sbag1
(g8
g3
NtRp429
(dp430
g11
g12
sg13
S'Gurmukhi MT'
p431
sg15
I400
sg16
g12
sg17
g12
sg18
V/Library/Fonts/Gurmukhi.ttf
p432
sg20
g21
sbag1
(g8
g3
NtRp433
(dp434
g11
g12
sg13
S'Bodoni 72 Smallcaps'
p435
sg15
I400
sg16
g12
sg17
g12
sg18
V/Library/Fonts/Bodoni 72 Smallcaps Book.ttf
p436
sg20
g21
sbag1
(g8
g3
NtRp437
(dp438
g11
g12
sg13
S'YuGothic'
p439
sg15
I700
sg16
g12
sg17
g12
sg18
V/Library/Fonts/Yu Gothic Bold.otf
p440
sg20
g21
sbag1
(g8
g3
NtRp441
(dp442
g11
g12
sg13
S'YuMincho'
p443
sg15
I700
sg16
g12
sg17
g12
sg18
V/Library/Fonts/Yu Mincho Demibold.otf
p444
sg20
g21
sbag1
(g8
g3
NtRp445
(dp446
g11
g40
sg13
S'Arial'
p447
sg15
I400
sg16
g12
sg17
g12
sg18
V/Library/Fonts/Arial Italic.ttf
p448
sg20
g21
sbag1
(g8
g3
NtRp449
(dp450
g11
g40
sg13
S'STIXNonUnicode'
p451
sg15
I700
sg16
g12
sg17
g12
sg18
V/Library/Fonts/STIXNonUniBolIta.otf
p452
sg20
g21
sbag1
(g8
g3
NtRp453
(dp454
g11
g12
sg13
S'Apple Braille'
p455
sg15
I400
sg16
g12
sg17
g12
sg18
V/System/Library/Fonts/Apple Braille Pinpoint 8 Dot.ttf
p456
sg20
g21
sbag1
(g8
g3
NtRp457
(dp458
g11
g40
sg13
S'Georgia'
p459
sg15
I400
sg16
g12
sg17
g12
sg18
V/Library/Fonts/Georgia Italic.ttf
p460
sg20
g21
sbag1
(g8
g3
NtRp461
(dp462
g11
g12
sg13
S'Apple Braille'
p463
sg15
I400
sg16
g12
sg17
g12
sg18
V/System/Library/Fonts/Apple Braille Outline 6 Dot.ttf
p464
sg20
g21
sbag1
(g8
g3
NtRp465
(dp466
g11
g12
sg13
S'Chalkduster'
p467
sg15
I400
sg16
g12
sg17
g12
sg18
V/Library/Fonts/Chalkduster.ttf
p468
sg20
g21
sbag1
(g8
g3
NtRp469
(dp470
g11
g40
sg13
S'Courier New'
p471
sg15
I700
sg16
g12
sg17
g12
sg18
V/Library/Fonts/Courier New Bold Italic.ttf
p472
sg20
g21
sbag1
(g8
g3
NtRp473
(dp474
g11
g12
sg13
S'Wawati SC'
p475
sg15
I400
sg16
g12
sg17
g12
sg18
V/Library/Fonts/WawaSC-Regular.otf
p476
sg20
g21
sbag1
(g8
g3
NtRp477
(dp478
g11
g12
sg13
S'Arial Rounded MT Bold'
p479
sg15
I700
sg16
g12
sg17
g12
sg18
V/Library/Fonts/Arial Rounded Bold.ttf
p480
sg20
g21
sbag1
(g8
g3
NtRp481
(dp482
g11
g12
sg13
S'Hiragino Kaku Gothic Std'
p483
sg15
I700
sg16
g12
sg17
g12
sg18
V/Library/Fonts/\u30d2\u30e9\u30ad\u3099\u30ce\u89d2\u30b3\u3099 Std W8.otf
p484
sg20
g21
sbag1
(g8
g3
NtRp485
(dp486
g11
g12
sg13
S'.Hiragino Kaku Gothic Interface'
p487
sg15
I400
sg16
g12
sg17
g12
sg18
V/System/Library/Fonts/HiraKakuInterface-W1.otf
p488
sg20
g21
sbag1
(g8
g3
NtRp489
(dp490
g11
g12
sg13
S'Hiragino Kaku Gothic ProN'
p491
sg15
I700
sg16
g12
sg17
g12
sg18
V/System/Library/Fonts/\u30d2\u30e9\u30ad\u3099\u30ce\u89d2\u30b3\u3099 ProN W6.otf
p492
sg20
g21
sbag1
(g8
g3
NtRp493
(dp494
g11
g12
sg13
S'PCMyungjo'
p495
sg15
I400
sg16
g12
sg17
g12
sg18
V/Library/Fonts/PCmyoungjo.ttf
p496
sg20
g21
sbag1
(g8
g3
NtRp497
(dp498
g11
g12
sg13
S'LastResort'
p499
sg15
I400
sg16
g12
sg17
g12
sg18
V/System/Library/Fonts/LastResort.ttf
p500
sg20
g21
sbag1
(g8
g3
NtRp501
(dp502
g11
g12
sg13
S'Apple SD Gothic Neo'
p503
sg15
I200
sg16
g12
sg17
g12
sg18
V/Library/Fonts/AppleSDGothicNeo-Light.otf
p504
sg20
g21
sbag1
(g8
g3
NtRp505
(dp506
g11
g40
sg13
S'Verdana'
p507
sg15
I700
sg16
g12
sg17
g12
sg18
V/Library/Fonts/Verdana Bold Italic.ttf
p508
sg20
g21
sbag1
(g8
g3
NtRp509
(dp510
g11
g12
sg13
S'LiHei Pro'
p511
sg15
I400
sg16
g12
sg17
g12
sg18
V/Library/Fonts/\u5137\u9ed1 Pro.ttf
p512
sg20
g21
sbag1
(g8
g3
NtRp513
(dp514
g11
g12
sg13
S'Hiragino Sans GB'
p515
sg15
I700
sg16
g12
sg17
g12
sg18
V/Library/Fonts/Hiragino Sans GB W6.otf
p516
sg20
g21
sbag1
(g8
g3
NtRp517
(dp518
g11
g12
sg13
S'Kailasa'
p519
sg15
I400
sg16
g12
sg17
g12
sg18
V/Library/Fonts/Kailasa.ttf
p520
sg20
g21
sbag1
(g8
g3
NtRp521
(dp522
g11
g12
sg13
S'STIXIntegralsSm'
p523
sg15
I400
sg16
g12
sg17
g12
sg18
V/Library/Fonts/STIXIntSmReg.otf
p524
sg20
g21
sbag1
(g8
g3
NtRp525
(dp526
g11
g12
sg13
S'Apple SD Gothic Neo'
p527
sg15
I400
sg16
g12
sg17
g12
sg18
V/Library/Fonts/AppleSDGothicNeo-Thin.otf
p528
sg20
g21
sbag1
(g8
g3
NtRp529
(dp530
g11
g12
sg13
S'Kokonor'
p531
sg15
I400
sg16
g12
sg17
g12
sg18
V/Library/Fonts/Kokonor.ttf
p532
sg20
g21
sbag1
(g8
g3
NtRp533
(dp534
g11
g40
sg13
S'Verdana'
p535
sg15
I400
sg16
g12
sg17
g12
sg18
V/Library/Fonts/Verdana Italic.ttf
p536
sg20
g21
sbag1
(g8
g3
NtRp537
(dp538
g11
g12
sg13
S'STIXGeneral'
p539
sg15
I700
sg16
g12
sg17
g12
sg18
V/Library/Fonts/STIXGeneralBol.otf
p540
sg20
g21
sbag1
(g8
g3
NtRp541
(dp542
g11
g12
sg13
S'Apple Braille'
p543
sg15
I400
sg16
g12
sg17
g12
sg18
V/System/Library/Fonts/Apple Braille.ttf
p544
sg20
g21
sbag1
(g8
g3
NtRp545
(dp546
g11
g12
sg13
S'InaiMathi'
p547
sg15
I400
sg16
g12
sg17
g12
sg18
V/Library/Fonts/InaiMathi.ttf
p548
sg20
g21
sbag1
(g8
g3
NtRp549
(dp550
g11
g12
sg13
S'Weibei TC'
p551
sg15
I700
sg16
g12
sg17
g12
sg18
V/Library/Fonts/WeibeiTC-Bold.otf
p552
sg20
g21
sbag1
(g8
g3
NtRp553
(dp554
g11
g12
sg13
S'STIXNonUnicode'
p555
sg15
I400
sg16
g12
sg17
g12
sg18
V/Library/Fonts/STIXNonUni.otf
p556
sg20
g21
sbag1
(g8
g3
NtRp557
(dp558
g11
g12
sg13
S'Osaka'
p559
sg15
I400
sg16
g12
sg17
g12
sg18
V/Library/Fonts/OsakaMono.ttf
p560
sg20
g21
sbag1
(g8
g3
NtRp561
(dp562
g11
g40
sg13
S'STIXNonUnicode'
p563
sg15
I400
sg16
g12
sg17
g12
sg18
V/Library/Fonts/STIXNonUniIta.otf
p564
sg20
g21
sbag1
(g8
g3
NtRp565
(dp566
g11
g12
sg13
S'STIXIntegralsUp'
p567
sg15
I400
sg16
g12
sg17
g12
sg18
V/Library/Fonts/STIXIntUpReg.otf
p568
sg20
g21
sbag1
(g8
g3
NtRp569
(dp570
g11
g12
sg13
S'Yuppy SC'
p571
sg15
I400
sg16
g12
sg17
g12
sg18
V/Library/Fonts/YuppySC-Regular.otf
p572
sg20
g21
sbag1
(g8
g3
NtRp573
(dp574
g11
g12
sg13
S'Comic Sans MS'
p575
sg15
I700
sg16
g12
sg17
g12
sg18
V/Library/Fonts/Comic Sans MS Bold.ttf
p576
sg20
g21
sbag1
(g8
g3
NtRp577
(dp578
g11
g12
sg13
S'Trebuchet MS'
p579
sg15
I400
sg16
g12
sg17
g12
sg18
V/Library/Fonts/Trebuchet MS.ttf
p580
sg20
g21
sbag1
(g8
g3
NtRp581
(dp582
g11
g12
sg13
S'Courier New'
p583
sg15
I700
sg16
g12
sg17
g12
sg18
V/Library/Fonts/Courier New Bold.ttf
p584
sg20
g21
sbag1
(g8
g3
NtRp585
(dp586
g11
g12
sg13
S'Big Caslon'
p587
sg15
I500
sg16
g12
sg17
g12
sg18
V/Library/Fonts/BigCaslon.ttf
p588
sg20
g21
sbag1
(g8
g3
NtRp589
(dp590
g11
g12
sg13
S'Ayuthaya'
p591
sg15
I400
sg16
g12
sg17
g12
sg18
V/Library/Fonts/Ayuthaya.ttf
p592
sg20
g21
sbag1
(g8
g3
NtRp593
(dp594
g11
g12
sg13
S'Apple SD Gothic Neo'
p595
sg15
I700
sg16
g12
sg17
g12
sg18
V/Library/Fonts/AppleSDGothicNeo-SemiBold.otf
p596
sg20
g21
sbag1
(g8
g3
NtRp597
(dp598
g11
g12
sg13
S'Herculanum'
p599
sg15
I400
sg16
g12
sg17
g12
sg18
V/Library/Fonts/Herculanum.ttf
p600
sg20
g21
sbag1
(g8
g3
NtRp601
(dp602
g11
g12
sg13
S'Webdings'
p603
sg15
I400
sg16
g12
sg17
g12
sg18
V/Library/Fonts/Webdings.ttf
p604
sg20
g21
sbag1
(g8
g3
NtRp605
(dp606
g11
g12
sg13
S'Apple Braille'
p607
sg15
I400
sg16
g12
sg17
g12
sg18
V/System/Library/Fonts/Apple Braille Pinpoint 6 Dot.ttf
p608
sg20
g21
sbag1
(g8
g3
NtRp609
(dp610
g11
g12
sg13
S'Hiragino Mincho ProN'
p611
sg15
I700
sg16
g12
sg17
g12
sg18
V/System/Library/Fonts/\u30d2\u30e9\u30ad\u3099\u30ce\u660e\u671d ProN W6.otf
p612
sg20
g21
sbag1
(g8
g3
NtRp613
(dp614
g11
g12
sg13
S'Symbol'
p615
sg15
I400
sg16
g12
sg17
g12
sg18
V/System/Library/Fonts/Symbol.ttf
p616
sg20
g21
sbag1
(g8
g3
NtRp617
(dp618
g11
g40
sg13
S'Trebuchet MS'
p619
sg15
I700
sg16
g12
sg17
g12
sg18
V/Library/Fonts/Trebuchet MS Bold Italic.ttf
p620
sg20
g21
sbag1
(g8
g3
NtRp621
(dp622
g11
g12
sg13
S'STHeiti'
p623
sg15
I400
sg16
g12
sg17
g12
sg18
V/Library/Fonts/\u534e\u6587\u7ec6\u9ed1.ttf
p624
sg20
g21
sbag1
(g8
g3
NtRp625
(dp626
g11
g12
sg13
S'Wingdings 2'
p627
sg15
I400
sg16
g12
sg17
g12
sg18
V/Library/Fonts/Wingdings 2.ttf
p628
sg20
g21
sbag1
(g8
g3
NtRp629
(dp630
g11
g12
sg13
S'SignPainter'
p631
sg15
I400
sg16
g12
sg17
g12
sg18
V/Library/Fonts/SignPainter.otf
p632
sg20
g21
sbag1
(g8
g3
NtRp633
(dp634
g11
g12
sg13
S'Tahoma'
p635
sg15
I400
sg16
g12
sg17
g12
sg18
V/Library/Fonts/Tahoma.ttf
p636
sg20
g21
sbag1
(g8
g3
NtRp637
(dp638
g11
g40
sg13
S'Brush Script MT'
p639
sg15
I400
sg16
g12
sg17
g12
sg18
V/Library/Fonts/Brush Script.ttf
p640
sg20
g21
sbag1
(g8
g3
NtRp641
(dp642
g11
g12
sg13
S'.Keyboard'
p643
sg15
I400
sg16
g12
sg17
g12
sg18
V/System/Library/Fonts/Keyboard.ttf
p644
sg20
g21
sbag1
(g8
g3
NtRp645
(dp646
g11
g12
sg13
S'STIXSizeOneSym'
p647
sg15
I400
sg16
g12
sg17
g12
sg18
V/Library/Fonts/STIXSizOneSymReg.otf
p648
sg20
g21
sbag1
(g8
g3
NtRp649
(dp650
g11
g12
sg13
S'STIXIntegralsUpSm'
p651
sg15
I400
sg16
g12
sg17
g12
sg18
V/Library/Fonts/STIXIntUpSmReg.otf
p652
sg20
g21
sbag1
(g8
g3
NtRp653
(dp654
g11
g12
sg13
S'Andale Mono'
p655
sg15
I400
sg16
g12
sg17
g12
sg18
V/Library/Fonts/Andale Mono.ttf
p656
sg20
g21
sbag1
(g8
g3
NtRp657
(dp658
g11
g12
sg13
S'Khmer Sangam MN'
p659
sg15
I400
sg16
g12
sg17
g12
sg18
V/Library/Fonts/Khmer Sangam MN.ttf
p660
sg20
g21
sbag1
(g8
g3
NtRp661
(dp662
g11
g12
sg13
S'YuMincho'
p663
sg15
I400
sg16
g12
sg17
g12
sg18
V/Library/Fonts/Yu Mincho Medium.otf
p664
sg20
g21
sbag1
(g8
g3
NtRp665
(dp666
g11
g12
sg13
S'Microsoft Sans Serif'
p667
sg15
I400
sg16
g12
sg17
g12
sg18
V/Library/Fonts/Microsoft Sans Serif.ttf
p668
sg20
g21
sbag1
(g8
g3
NtRp669
(dp670
g11
g12
sg13
S'STIXIntegralsUpD'
p671
sg15
I700
sg16
g12
sg17
g12
sg18
V/Library/Fonts/STIXIntUpDBol.otf
p672
sg20
g21
sbag1
(g8
g3
NtRp673
(dp674
g11
g12
sg13
S'.Hiragino Kaku Gothic Interface'
p675
sg15
I400
sg16
g12
sg17
g12
sg18
V/System/Library/Fonts/HiraKakuInterface-W2.otf
p676
sg20
g21
sbag1
(g8
g3
NtRp677
(dp678
g11
g12
sg13
S'STIXGeneral'
p679
sg15
I400
sg16
g12
sg17
g12
sg18
V/Library/Fonts/STIXGeneral.otf
p680
sg20
g21
sbag1
(g8
g3
NtRp681
(dp682
g11
g40
sg13
S'Courier New'
p683
sg15
I400
sg16
g12
sg17
g12
sg18
V/Library/Fonts/Courier New Italic.ttf
p684
sg20
g21
sbag1
(g8
g3
NtRp685
(dp686
g11
g12
sg13
S'Arial Black'
p687
sg15
I900
sg16
g12
sg17
g12
sg18
V/Library/Fonts/Arial Black.ttf
p688
sg20
g21
sbag1
(g8
g3
NtRp689
(dp690
g11
g40
sg13
S'STIXGeneral'
p691
sg15
I400
sg16
g12
sg17
g12
sg18
V/Library/Fonts/STIXGeneralItalic.otf
p692
sg20
g21
sbag1
(g8
g3
NtRp693
(dp694
g11
g12
sg13
S'Silom'
p695
sg15
I400
sg16
g12
sg17
g12
sg18
V/Library/Fonts/Silom.ttf
p696
sg20
g21
sbag1
(g8
g3
NtRp697
(dp698
g11
g45
sg13
S'Mshtakan'
p699
sg15
I700
sg16
g12
sg17
g12
sg18
V/Library/Fonts/MshtakanBoldOblique.ttf
p700
sg20
g21
sbag1
(g8
g3
NtRp701
(dp702
g11
g12
sg13
S'Yuppy TC'
p703
sg15
I400
sg16
g12
sg17
g12
sg18
V/Library/Fonts/YuppyTC-Regular.otf
p704
sg20
g21
sbag1
(g8
g3
NtRp705
(dp706
g11
g12
sg13
S'Hiragino Kaku Gothic ProN'
p707
sg15
I400
sg16
g12
sg17
g12
sg18
V/System/Library/Fonts/\u30d2\u30e9\u30ad\u3099\u30ce\u89d2\u30b3\u3099 ProN W3.otf
p708
sg20
g21
sbag1
(g8
g3
NtRp709
(dp710
g11
g12
sg13
S'STIXSizeFourSym'
p711
sg15
I400
sg16
g12
sg17
g12
sg18
V/Library/Fonts/STIXSizFourSymReg.otf
p712
sg20
g21
sbag1
(g8
g3
NtRp713
(dp714
g11
g12
sg13
S'Apple Chancery'
p715
sg15
I400
sg16
g12
sg17
g12
sg18
V/Library/Fonts/Apple Chancery.ttf
p716
sg20
g21
sbag1
(g8
g3
NtRp717
(dp718
g11
g12
sg13
S'Wingdings 3'
p719
sg15
I400
sg16
g12
sg17
g12
sg18
V/Library/Fonts/Wingdings 3.ttf
p720
sg20
g21
sbag1
(g8
g3
NtRp721
(dp722
g11
g40
sg13
S'STIXGeneral'
p723
sg15
I700
sg16
g12
sg17
g12
sg18
V/Library/Fonts/STIXGeneralBolIta.otf
p724
sg20
g21
sbag1
(g8
g3
NtRp725
(dp726
g11
g12
sg13
S'STIXIntegralsUpSm'
p727
sg15
I700
sg16
g12
sg17
g12
sg18
V/Library/Fonts/STIXIntUpSmBol.otf
p728
sg20
g21
sbag1
(g8
g3
NtRp729
(dp730
g11
g12
sg13
S'Lao Sangam MN'
p731
sg15
I400
sg16
g12
sg17
g12
sg18
V/Library/Fonts/Lao Sangam MN.ttf
p732
sg20
g21
sbag1
(g8
g3
NtRp733
(dp734
g11
g12
sg13
S'Trattatello'
p735
sg15
I400
sg16
g12
sg17
g12
sg18
V/Library/Fonts/Trattatello.ttf
p736
sg20
g21
sbag1
(g8
g3
NtRp737
(dp738
g11
g12
sg13
S'STIXSizeOneSym'
p739
sg15
I700
sg16
g12
sg17
g12
sg18
V/Library/Fonts/STIXSizOneSymBol.otf
p740
sg20
g21
sbag1
(g8
g3
NtRp741
(dp742
g11
g12
sg13
S'Comic Sans MS'
p743
sg15
I400
sg16
g12
sg17
g12
sg18
V/Library/Fonts/Comic Sans MS.ttf
p744
sg20
g21
sbag1
(g8
g3
NtRp745
(dp746
g11
g12
sg13
S'STIXSizeTwoSym'
p747
sg15
I400
sg16
g12
sg17
g12
sg18
V/Library/Fonts/STIXSizTwoSymReg.otf
p748
sg20
g21
sbag1
(g8
g3
NtRp749
(dp750
g11
g12
sg13
S'Bodoni Ornaments'
p751
sg15
I400
sg16
g12
sg17
g12
sg18
V/Library/Fonts/Bodoni Ornaments.ttf
p752
sg20
g21
sbag1
(g8
g3
NtRp753
(dp754
g11
g12
sg13
S'Weibei SC'
p755
sg15
I700
sg16
g12
sg17
g12
sg18
V/Library/Fonts/WeibeiSC-Bold.otf
p756
sg20
g21
sbag1
(g8
g3
NtRp757
(dp758
g11
g12
sg13
S'STIXSizeFourSym'
p759
sg15
I700
sg16
g12
sg17
g12
sg18
V/Library/Fonts/STIXSizFourSymBol.otf
p760
sg20
g21
sbag1
(g8
g3
NtRp761
(dp762
g11
g12
sg13
S'Arial'
p763
sg15
I700
sg16
g12
sg17
g12
sg18
V/Library/Fonts/Arial Bold.ttf
p764
sg20
g21
sbag1
(g8
g3
NtRp765
(dp766
g11
g12
sg13
S'Georgia'
p767
sg15
I700
sg16
g12
sg17
g12
sg18
V/Library/Fonts/Georgia Bold.ttf
p768
sg20
g21
sbag1
(g8
g3
NtRp769
(dp770
g11
g12
sg13
S'STIXIntegralsD'
p771
sg15
I400
sg16
g12
sg17
g12
sg18
V/Library/Fonts/STIXIntDReg.otf
p772
sg20
g21
sbag1
(g8
g3
NtRp773
(dp774
g11
g12
sg13
S'GungSeo'
p775
sg15
I400
sg16
g12
sg17
g12
sg18
V/Library/Fonts/Gungseouche.ttf
p776
sg20
g21
sbag1
(g8
g3
NtRp777
(dp778
g11
g12
sg13
S'STIXSizeTwoSym'
p779
sg15
I700
sg16
g12
sg17
g12
sg18
V/Library/Fonts/STIXSizTwoSymBol.otf
p780
sg20
g21
sbag1
(g8
g3
NtRp781
(dp782
g11
g12
sg13
S'Wingdings'
p783
sg15
I400
sg16
g12
sg17
g12
sg18
V/Library/Fonts/Wingdings.ttf
p784
sg20
g21
sbag1
(g8
g3
NtRp785
(dp786
g11
g12
sg13
S'Hiragino Kaku Gothic StdN'
p787
sg15
I700
sg16
g12
sg17
g12
sg18
V/Library/Fonts/\u30d2\u30e9\u30ad\u3099\u30ce\u89d2\u30b3\u3099 StdN W8.otf
p788
sg20
g21
sbag1
(g8
g3
NtRp789
(dp790
g11
g12
sg13
S'Impact'
p791
sg15
I400
sg16
g12
sg17
g12
sg18
V/Library/Fonts/Impact.ttf
p792
sg20
g21
sbag1
(g8
g3
NtRp793
(dp794
g11
g12
sg13
S'Tahoma'
p795
sg15
I700
sg16
g12
sg17
g12
sg18
V/Library/Fonts/Tahoma Bold.ttf
p796
sg20
g21
sbag1
(g8
g3
NtRp797
(dp798
g11
g12
sg13
S'STIXNonUnicode'
p799
sg15
I700
sg16
g12
sg17
g12
sg18
V/Library/Fonts/STIXNonUniBol.otf
p800
sg20
g21
sbag1
(g8
g3
NtRp801
(dp802
g11
g40
sg13
S'Georgia'
p803
sg15
I700
sg16
g12
sg17
g12
sg18
V/Library/Fonts/Georgia Bold Italic.ttf
p804
sg20
g21
sbag1
(g8
g3
NtRp805
(dp806
g11
g12
sg13
S'STIXIntegralsUpD'
p807
sg15
I400
sg16
g12
sg17
g12
sg18
V/Library/Fonts/STIXIntUpDReg.otf
p808
sg20
g21
sbag1
(g8
g3
NtRp809
(dp810
g11
g12
sg13
S'Sathu'
p811
sg15
I400
sg16
g12
sg17
g12
sg18
V/Library/Fonts/Sathu.ttf
p812
sg20
g21
sbag1
(g8
g3
NtRp813
(dp814
g11
g12
sg13
S'Gujarati MT'
p815
sg15
I400
sg16
g12
sg17
g12
sg18
V/Library/Fonts/GujaratiMT.ttf
p816
sg20
g21
sbag1
(g8
g3
NtRp817
(dp818
g11
g12
sg13
S'Apple SD Gothic Neo'
p819
sg15
I500
sg16
g12
sg17
g12
sg18
V/Library/Fonts/AppleSDGothicNeo-Medium.otf
p820
sg20
g21
sbasS'defaultFamily'
p821
(dp822
Vafm
p823
VHelvetica
p824
sVttf
p825
VBitstream Vera Sans
p826
ssS'ttffiles'
p827
(lp828
g19
ag25
ag29
ag33
ag37
ag42
ag47
ag51
ag55
ag59
ag63
ag67
ag71
ag75
ag79
ag83
ag87
ag91
ag95
ag99
ag103
ag107
ag111
ag115
ag119
ag123
ag127
ag131
ag135
ag139
ag143
ag147
ag151
ag155
ag159
ag163
ag167
ag171
ag175
ag179
ag183
ag187
ag191
ag196
ag200
ag204
ag208
ag212
ag216
ag220
ag224
ag228
ag232
ag236
ag240
aV/Library/Fonts/NISC18030.ttf
p829
ag244
ag248
ag252
ag256
ag260
ag264
ag268
ag272
ag276
ag280
ag284
ag288
ag292
ag296
ag300
ag304
ag308
ag312
ag316
ag320
ag324
ag328
ag332
ag336
ag340
ag344
ag348
ag352
ag356
ag360
ag364
ag368
ag372
ag376
ag380
ag384
ag388
ag392
ag396
ag400
ag404
ag408
ag412
ag416
ag420
ag424
ag428
ag432
ag436
ag440
aV/System/Library/Fonts/Apple Color Emoji.ttf
p830
ag444
ag448
ag452
ag456
ag460
ag464
ag468
ag472
ag476
ag480
ag484
ag488
ag492
ag496
ag500
ag504
ag508
ag512
ag516
ag520
ag524
ag528
ag532
ag536
ag540
ag544
ag548
ag552
ag556
ag560
ag564
ag568
ag572
ag576
ag580
ag584
ag588
ag592
ag596
ag600
ag604
ag608
ag612
ag616
ag620
ag624
ag628
ag632
ag636
ag640
ag644
ag648
ag652
ag656
ag660
ag664
ag668
ag672
ag676
ag680
ag684
ag688
ag692
ag696
ag700
ag704
ag708
ag712
ag716
ag720
ag724
ag728
ag732
ag736
ag740
ag744
ag748
ag752
ag756
ag760
ag764
ag768
ag772
ag776
ag780
ag784
ag788
ag792
ag796
ag800
ag804
ag808
ag812
ag816
ag820
asS'_FontManager__default_weight'
p831
Vnormal
p832
sS'_version'
p833
I101
sS'default_size'
p834
NsS'defaultFont'
p835
(dp836
g823
V/usr/local/lib/python2.7/site-packages/matplotlib/mpl-data/fonts/pdfcorefonts/Helvetica-Bold.afm
p837
sg825
g111
ssS'afmfiles'
p838
(lp839
g837
aV/usr/local/lib/python2.7/site-packages/matplotlib/mpl-data/fonts/pdfcorefonts/Courier-Oblique.afm
p840
aV/usr/local/lib/python2.7/site-packages/matplotlib/mpl-data/fonts/afm/phvb8a.afm
p841
aV/usr/local/lib/python2.7/site-packages/matplotlib/mpl-data/fonts/pdfcorefonts/Times-Bold.afm
p842
aV/usr/local/lib/python2.7/site-packages/matplotlib/mpl-data/fonts/afm/pbkli8a.afm
p843
aV/usr/local/lib/python2.7/site-packages/matplotlib/mpl-data/fonts/pdfcorefonts/Courier-BoldOblique.afm
p844
aV/usr/local/lib/python2.7/site-packages/matplotlib/mpl-data/fonts/afm/phvr8an.afm
p845
aV/usr/local/lib/python2.7/site-packages/matplotlib/mpl-data/fonts/pdfcorefonts/Courier.afm
p846
aV/usr/local/lib/python2.7/site-packages/matplotlib/mpl-data/fonts/afm/ptmri8a.afm
p847
aV/usr/local/lib/python2.7/site-packages/matplotlib/mpl-data/fonts/afm/cmex10.afm
p848
aV/usr/local/lib/python2.7/site-packages/matplotlib/mpl-data/fonts/afm/pzdr.afm
p849
aV/usr/local/lib/python2.7/site-packages/matplotlib/mpl-data/fonts/afm/phvr8a.afm
p850
aV/usr/local/lib/python2.7/site-packages/matplotlib/mpl-data/fonts/afm/pncbi8a.afm
p851
aV/usr/local/lib/python2.7/site-packages/matplotlib/mpl-data/fonts/afm/phvbo8an.afm
p852
aV/usr/local/lib/python2.7/site-packages/matplotlib/mpl-data/fonts/afm/pagd8a.afm
p853
aV/usr/local/lib/python2.7/site-packages/matplotlib/mpl-data/fonts/afm/pplbi8a.afm
p854
aV/usr/local/lib/python2.7/site-packages/matplotlib/mpl-data/fonts/afm/cmtt10.afm
p855
aV/usr/local/lib/python2.7/site-packages/matplotlib/mpl-data/fonts/afm/putri8a.afm
p856
aV/usr/local/lib/python2.7/site-packages/matplotlib/mpl-data/fonts/afm/pplr8a.afm
p857
aV/usr/local/lib/python2.7/site-packages/matplotlib/mpl-data/fonts/afm/cmsy10.afm
p858
aV/usr/local/lib/python2.7/site-packages/matplotlib/mpl-data/fonts/afm/putb8a.afm
p859
aV/usr/local/lib/python2.7/site-packages/matplotlib/mpl-data/fonts/pdfcorefonts/Helvetica.afm
p860
aV/usr/local/lib/python2.7/site-packages/matplotlib/mpl-data/fonts/afm/pplb8a.afm
p861
aV/usr/local/lib/python2.7/site-packages/matplotlib/mpl-data/fonts/afm/phvb8an.afm
p862
aV/usr/local/lib/python2.7/site-packages/matplotlib/mpl-data/fonts/afm/putr8a.afm
p863
aV/usr/local/lib/python2.7/site-packages/matplotlib/mpl-data/fonts/afm/phvro8a.afm
p864
aV/usr/local/lib/python2.7/site-packages/matplotlib/mpl-data/fonts/pdfcorefonts/Helvetica-BoldOblique.afm
p865
aV/usr/local/lib/python2.7/site-packages/matplotlib/mpl-data/fonts/pdfcorefonts/Symbol.afm
p866
aV/usr/local/lib/python2.7/site-packages/matplotlib/mpl-data/fonts/afm/pplri8a.afm
p867
aV/usr/local/lib/python2.7/site-packages/matplotlib/mpl-data/fonts/pdfcorefonts/Times-Italic.afm
p868
aV/usr/local/lib/python2.7/site-packages/matplotlib/mpl-data/fonts/afm/ptmb8a.afm
p869
aV/usr/local/lib/python2.7/site-packages/matplotlib/mpl-data/fonts/afm/ptmr8a.afm
p870
aV/usr/local/lib/python2.7/site-packages/matplotlib/mpl-data/fonts/afm/phvl8a.afm
p871
aV/usr/local/lib/python2.7/site-packages/matplotlib/mpl-data/fonts/afm/putbi8a.afm
p872
aV/usr/local/lib/python2.7/site-packages/matplotlib/mpl-data/fonts/afm/pncri8a.afm
p873
aV/usr/local/lib/python2.7/site-packages/matplotlib/mpl-data/fonts/afm/cmr10.afm
p874
aV/usr/local/lib/python2.7/site-packages/matplotlib/mpl-data/fonts/afm/pbkl8a.afm
p875
aV/usr/local/lib/python2.7/site-packages/matplotlib/mpl-data/fonts/pdfcorefonts/Helvetica-Oblique.afm
p876
aV/usr/local/lib/python2.7/site-packages/matplotlib/mpl-data/fonts/pdfcorefonts/Times-BoldItalic.afm
p877
aV/usr/local/lib/python2.7/site-packages/matplotlib/mpl-data/fonts/afm/phvlo8a.afm
p878
aV/usr/local/lib/python2.7/site-packages/matplotlib/mpl-data/fonts/afm/pcrbo8a.afm
p879
aV/usr/local/lib/python2.7/site-packages/matplotlib/mpl-data/fonts/pdfcorefonts/Courier-Bold.afm
p880
aV/usr/local/lib/python2.7/site-packages/matplotlib/mpl-data/fonts/afm/phvro8an.afm
p881
aV/usr/local/lib/python2.7/site-packages/matplotlib/mpl-data/fonts/afm/ptmbi8a.afm
p882
aV/usr/local/lib/python2.7/site-packages/matplotlib/mpl-data/fonts/afm/pcrb8a.afm
p883
aV/usr/local/lib/python2.7/site-packages/matplotlib/mpl-data/fonts/afm/phvbo8a.afm
p884
aV/usr/local/lib/python2.7/site-packages/matplotlib/mpl-data/fonts/afm/pncr8a.afm
p885
aV/usr/local/lib/python2.7/site-packages/matplotlib/mpl-data/fonts/afm/psyr.afm
p886
aV/usr/local/lib/python2.7/site-packages/matplotlib/mpl-data/fonts/afm/pcrro8a.afm
p887
aV/usr/local/lib/python2.7/site-packages/matplotlib/mpl-data/fonts/pdfcorefonts/ZapfDingbats.afm
p888
aV/usr/local/lib/python2.7/site-packages/matplotlib/mpl-data/fonts/afm/cmmi10.afm
p889
aV/usr/local/lib/python2.7/site-packages/matplotlib/mpl-data/fonts/afm/pcrr8a.afm
p890
aV/usr/local/lib/python2.7/site-packages/matplotlib/mpl-data/fonts/afm/pncb8a.afm
p891
aV/usr/local/lib/python2.7/site-packages/matplotlib/mpl-data/fonts/afm/pbkd8a.afm
p892
aV/usr/local/lib/python2.7/site-packages/matplotlib/mpl-data/fonts/afm/pzcmi8a.afm
p893
aV/usr/local/lib/python2.7/site-packages/matplotlib/mpl-data/fonts/afm/pagko8a.afm
p894
aV/usr/local/lib/python2.7/site-packages/matplotlib/mpl-data/fonts/pdfcorefonts/Times-Roman.afm
p895
aV/usr/local/lib/python2.7/site-packages/matplotlib/mpl-data/fonts/afm/pagk8a.afm
p896
aV/usr/local/lib/python2.7/site-packages/matplotlib/mpl-data/fonts/afm/pagdo8a.afm
p897
aV/usr/local/lib/python2.7/site-packages/matplotlib/mpl-data/fonts/afm/pbkdi8a.afm
p898
asS'afmlist'
p899
(lp900
g1
(g8
g3
NtRp901
(dp902
g11
Vnormal
p903
sg13
S'Helvetica'
p904
sg15
I700
sg16
g903
sg17
g903
sg18
g837
sg20
Vscalable
p905
sbag1
(g8
g3
NtRp906
(dp907
g11
Vitalic
p908
sg13
S'Courier'
p909
sg15
I500
sg16
g903
sg17
g903
sg18
g840
sg20
g905
sbag1
(g8
g3
NtRp910
(dp911
g11
g903
sg13
S'Helvetica'
p912
sg15
I700
sg16
g903
sg17
g903
sg18
g841
sg20
g905
sbag1
(g8
g3
NtRp913
(dp914
g11
g903
sg13
S'Times'
p915
sg15
I700
sg16
g903
sg17
g903
sg18
g842
sg20
g905
sbag1
(g8
g3
NtRp916
(dp917
g11
g908
sg13
S'ITC Bookman'
p918
sg15
I200
sg16
g903
sg17
g903
sg18
g843
sg20
g905
sbag1
(g8
g3
NtRp919
(dp920
g11
g908
sg13
S'Courier'
p921
sg15
I700
sg16
g903
sg17
g903
sg18
g844
sg20
g905
sbag1
(g8
g3
NtRp922
(dp923
g11
g903
sg13
S'Helvetica'
p924
sg15
I500
sg16
Vcondensed
p925
sg17
g903
sg18
g845
sg20
g905
sbag1
(g8
g3
NtRp926
(dp927
g11
g903
sg13
S'Courier'
p928
sg15
I500
sg16
g903
sg17
g903
sg18
g846
sg20
g905
sbag1
(g8
g3
NtRp929
(dp930
g11
g908
sg13
S'Times'
p931
sg15
I500
sg16
g903
sg17
g903
sg18
g847
sg20
g905
sbag1
(g8
g3
NtRp932
(dp933
g11
g903
sg13
S'Computer Modern'
p934
sg15
I500
sg16
g903
sg17
g903
sg18
g848
sg20
g905
sbag1
(g8
g3
NtRp935
(dp936
g11
g903
sg13
S'ITC Zapf Dingbats'
p937
sg15
I500
sg16
g903
sg17
g903
sg18
g849
sg20
g905
sbag1
(g8
g3
NtRp938
(dp939
g11
g903
sg13
S'Helvetica'
p940
sg15
I500
sg16
g903
sg17
g903
sg18
g850
sg20
g905
sbag1
(g8
g3
NtRp941
(dp942
g11
g908
sg13
S'New Century Schoolbook'
p943
sg15
I700
sg16
g903
sg17
g903
sg18
g851
sg20
g905
sbag1
(g8
g3
NtRp944
(dp945
g11
g908
sg13
S'Helvetica'
p946
sg15
I700
sg16
g925
sg17
g903
sg18
g852
sg20
g905
sbag1
(g8
g3
NtRp947
(dp948
g11
g903
sg13
S'ITC Avant Garde Gothic'
p949
sg15
I600
sg16
g903
sg17
g903
sg18
g853
sg20
g905
sbag1
(g8
g3
NtRp950
(dp951
g11
g908
sg13
S'Palatino'
p952
sg15
I700
sg16
g903
sg17
g903
sg18
g854
sg20
g905
sbag1
(g8
g3
NtRp953
(dp954
g11
g903
sg13
S'Computer Modern'
p955
sg15
I500
sg16
g903
sg17
g903
sg18
g855
sg20
g905
sbag1
(g8
g3
NtRp956
(dp957
g11
g908
sg13
S'Utopia'
p958
sg15
I400
sg16
g903
sg17
g903
sg18
g856
sg20
g905
sbag1
(g8
g3
NtRp959
(dp960
g11
g903
sg13
S'Palatino'
p961
sg15
I500
sg16
g903
sg17
g903
sg18
g857
sg20
g905
sbag1
(g8
g3
NtRp962
(dp963
g11
g908
sg13
S'Computer Modern'
p964
sg15
I500
sg16
g903
sg17
g903
sg18
g858
sg20
g905
sbag1
(g8
g3
NtRp965
(dp966
g11
g903
sg13
S'Utopia'
p967
sg15
I700
sg16
g903
sg17
g903
sg18
g859
sg20
g905
sbag1
(g8
g3
NtRp968
(dp969
g11
g903
sg13
S'Helvetica'
p970
sg15
I500
sg16
g903
sg17
g903
sg18
g860
sg20
g905
sbag1
(g8
g3
NtRp971
(dp972
g11
g903
sg13
S'Palatino'
p973
sg15
I700
sg16
g903
sg17
g903
sg18
g861
sg20
g905
sbag1
(g8
g3
NtRp974
(dp975
g11
g903
sg13
S'Helvetica'
p976
sg15
I700
sg16
g925
sg17
g903
sg18
g862
sg20
g905
sbag1
(g8
g3
NtRp977
(dp978
g11
g903
sg13
S'Utopia'
p979
sg15
I400
sg16
g903
sg17
g903
sg18
g863
sg20
g905
sbag1
(g8
g3
NtRp980
(dp981
g11
g908
sg13
S'Helvetica'
p982
sg15
I500
sg16
g903
sg17
g903
sg18
g864
sg20
g905
sbag1
(g8
g3
NtRp983
(dp984
g11
g908
sg13
S'Helvetica'
p985
sg15
I700
sg16
g903
sg17
g903
sg18
g865
sg20
g905
sbag1
(g8
g3
NtRp986
(dp987
g11
g903
sg13
S'Symbol'
p988
sg15
I500
sg16
g903
sg17
g903
sg18
g866
sg20
g905
sbag1
(g8
g3
NtRp989
(dp990
g11
g908
sg13
S'Palatino'
p991
sg15
I500
sg16
g903
sg17
g903
sg18
g867
sg20
g905
sbag1
(g8
g3
NtRp992
(dp993
g11
g908
sg13
S'Times'
p994
sg15
I500
sg16
g903
sg17
g903
sg18
g868
sg20
g905
sbag1
(g8
g3
NtRp995
(dp996
g11
g903
sg13
S'Times'
p997
sg15
I700
sg16
g903
sg17
g903
sg18
g869
sg20
g905
sbag1
(g8
g3
NtRp998
(dp999
g11
g903
sg13
S'Times'
p1000
sg15
I500
sg16
g903
sg17
g903
sg18
g870
sg20
g905
sbag1
(g8
g3
NtRp1001
(dp1002
g11
g903
sg13
S'Helvetica'
p1003
sg15
I200
sg16
g903
sg17
g903
sg18
g871
sg20
g905
sbag1
(g8
g3
NtRp1004
(dp1005
g11
g908
sg13
S'Utopia'
p1006
sg15
I700
sg16
g903
sg17
g903
sg18
g872
sg20
g905
sbag1
(g8
g3
NtRp1007
(dp1008
g11
g908
sg13
S'New Century Schoolbook'
p1009
sg15
I500
sg16
g903
sg17
g903
sg18
g873
sg20
g905
sbag1
(g8
g3
NtRp1010
(dp1011
g11
g903
sg13
S'Computer Modern'
p1012
sg15
I500
sg16
g903
sg17
g903
sg18
g874
sg20
g905
sbag1
(g8
g3
NtRp1013
(dp1014
g11
g903
sg13
S'ITC Bookman'
p1015
sg15
I200
sg16
g903
sg17
g903
sg18
g875
sg20
g905
sbag1
(g8
g3
NtRp1016
(dp1017
g11
g908
sg13
S'Helvetica'
p1018
sg15
I500
sg16
g903
sg17
g903
sg18
g876
sg20
g905
sbag1
(g8
g3
NtRp1019
(dp1020
g11
g908
sg13
S'Times'
p1021
sg15
I700
sg16
g903
sg17
g903
sg18
g877
sg20
g905
sbag1
(g8
g3
NtRp1022
(dp1023
g11
g908
sg13
S'Helvetica'
p1024
sg15
I200
sg16
g903
sg17
g903
sg18
g878
sg20
g905
sbag1
(g8
g3
NtRp1025
(dp1026
g11
g908
sg13
S'Courier'
p1027
sg15
I700
sg16
g903
sg17
g903
sg18
g879
sg20
g905
sbag1
(g8
g3
NtRp1028
(dp1029
g11
g903
sg13
S'Courier'
p1030
sg15
I700
sg16
g903
sg17
g903
sg18
g880
sg20
g905
sbag1
(g8
g3
NtRp1031
(dp1032
g11
g908
sg13
S'Helvetica'
p1033
sg15
I500
sg16
g925
sg17
g903
sg18
g881
sg20
g905
sbag1
(g8
g3
NtRp1034
(dp1035
g11
g908
sg13
S'Times'
p1036
sg15
I700
sg16
g903
sg17
g903
sg18
g882
sg20
g905
sbag1
(g8
g3
NtRp1037
(dp1038
g11
g903
sg13
S'Courier'
p1039
sg15
I700
sg16
g903
sg17
g903
sg18
g883
sg20
g905
sbag1
(g8
g3
NtRp1040
(dp1041
g11
g908
sg13
S'Helvetica'
p1042
sg15
I700
sg16
g903
sg17
g903
sg18
g884
sg20
g905
sbag1
(g8
g3
NtRp1043
(dp1044
g11
g903
sg13
S'New Century Schoolbook'
p1045
sg15
I500
sg16
g903
sg17
g903
sg18
g885
sg20
g905
sbag1
(g8
g3
NtRp1046
(dp1047
g11
g903
sg13
S'Symbol'
p1048
sg15
I500
sg16
g903
sg17
g903
sg18
g886
sg20
g905
sbag1
(g8
g3
NtRp1049
(dp1050
g11
g908
sg13
S'Courier'
p1051
sg15
I500
sg16
g903
sg17
g903
sg18
g887
sg20
g905
sbag1
(g8
g3
NtRp1052
(dp1053
g11
g903
sg13
S'ZapfDingbats'
p1054
sg15
I500
sg16
g903
sg17
g903
sg18
g888
sg20
g905
sbag1
(g8
g3
NtRp1055
(dp1056
g11
g908
sg13
S'Computer Modern'
p1057
sg15
I500
sg16
g903
sg17
g903
sg18
g889
sg20
g905
sbag1
(g8
g3
NtRp1058
(dp1059
g11
g903
sg13
S'Courier'
p1060
sg15
I500
sg16
g903
sg17
g903
sg18
g890
sg20
g905
sbag1
(g8
g3
NtRp1061
(dp1062
g11
g903
sg13
S'New Century Schoolbook'
p1063
sg15
I700
sg16
g903
sg17
g903
sg18
g891
sg20
g905
sbag1
(g8
g3
NtRp1064
(dp1065
g11
g903
sg13
S'ITC Bookman'
p1066
sg15
I600
sg16
g903
sg17
g903
sg18
g892
sg20
g905
sbag1
(g8
g3
NtRp1067
(dp1068
g11
g908
sg13
S'ITC Zapf Chancery'
p1069
sg15
I500
sg16
g903
sg17
g903
sg18
g893
sg20
g905
sbag1
(g8
g3
NtRp1070
(dp1071
g11
g908
sg13
S'ITC Avant Garde Gothic'
p1072
sg15
I400
sg16
g903
sg17
g903
sg18
g894
sg20
g905
sbag1
(g8
g3
NtRp1073
(dp1074
g11
g903
sg13
S'Times'
p1075
sg15
I500
sg16
g903
sg17
g903
sg18
g895
sg20
g905
sbag1
(g8
g3
NtRp1076
(dp1077
g11
g903
sg13
S'ITC Avant Garde Gothic'
p1078
sg15
I400
sg16
g903
sg17
g903
sg18
g896
sg20
g905
sbag1
(g8
g3
NtRp1079
(dp1080
g11
g908
sg13
S'ITC Avant Garde Gothic'
p1081
sg15
I600
sg16
g903
sg17
g903
sg18
g897
sg20
g905
sbag1
(g8
g3
NtRp1082
(dp1083
g11
g908
sg13
S'ITC Bookman'
p1084
sg15
I600
sg16
g903
sg17
g903
sg18
g898
sg20
g905
sbasb.